Certificate:
    Data:
        Version: 3 (0x2)
        Serial Number: 4096 (0x1000)
    Signature Algorithm: md5WithRSAEncryption
        Issuer: C=US, ST=Utah, L=Salt Lake City, O=University Of Utah, CN=AvishekCAMSD
        Validity
            Not Before: Apr  3 00:52:19 2023 GMT
            Not After : Apr  2 00:52:19 2024 GMT
        Subject: C=US, ST=Utah, O=University Of Utah, CN=AvishekServerMSD
        Subject Public Key Info:
            Public Key Algorithm: rsaEncryption
                RSA Public-Key: (4096 bit)
                Modulus:
                    00:ad:0b:8b:0a:c1:da:e1:8e:c2:64:d4:15:56:70:
                    f5:ea:c8:7f:09:27:85:6f:f4:66:ca:46:c1:e3:3a:
                    23:9e:b1:44:62:6e:14:50:b3:97:fa:ff:40:af:5a:
                    3f:c8:c3:40:df:5b:de:15:49:2e:d1:1d:3c:bd:ee:
                    9e:85:57:67:74:30:5f:04:01:61:e1:6a:a8:ff:07:
                    b4:8e:00:56:08:55:14:d9:03:68:e2:c0:5a:34:27:
                    f6:3a:78:74:d5:ca:aa:07:7d:42:7f:d5:c6:28:ec:
                    e4:e4:3b:d7:da:f7:b6:cf:fd:65:99:0c:b3:92:f5:
                    09:4c:1d:14:31:18:3d:43:51:da:c5:2a:53:d1:8a:
                    1d:45:25:a4:23:e3:6e:64:c2:76:36:58:64:5a:96:
                    d9:ef:6e:ad:87:6b:55:d7:c9:72:8a:25:2b:c2:82:
                    76:e9:49:a8:54:1f:8f:71:a7:27:f8:98:7e:32:b8:
                    2d:95:8d:cc:6f:0f:a5:7b:f0:5f:5c:75:6c:c6:c8:
                    a2:be:d8:f0:7d:52:d2:1f:3a:bc:26:4f:7e:3f:0a:
                    72:c0:7d:78:a6:41:c8:5f:80:16:e9:cc:d3:f4:c0:
                    83:15:0e:b4:f4:28:44:98:98:a9:e2:f0:94:8f:1b:
                    54:c2:d9:34:8d:e6:f5:91:06:7d:c9:c9:6f:4f:94:
                    0b:73:c3:40:ca:58:82:22:1f:c9:6e:e5:1a:f7:59:
                    e8:37:75:b9:39:84:f8:75:70:36:8c:84:57:bb:92:
                    11:69:a2:1d:63:e8:fb:89:26:ba:a0:5a:17:74:4f:
                    8c:8c:c2:ca:62:bd:73:87:08:0f:5e:63:a5:54:60:
                    aa:7e:1c:5b:02:10:99:de:f8:ac:af:3c:be:31:64:
                    9c:22:57:50:70:b7:ab:4c:19:ea:63:66:67:fc:96:
                    4b:b5:bd:77:6e:ab:09:06:d4:6e:36:51:46:f9:5a:
                    58:bc:56:79:63:04:bd:db:d7:32:43:82:27:27:c2:
                    24:97:54:38:03:e5:b9:21:5e:7a:d4:7c:d5:34:55:
                    ad:ba:b7:d8:12:b3:f6:66:74:42:95:5d:d7:d7:cd:
                    20:83:67:2c:01:86:87:ac:5f:b6:f2:9c:49:cd:b4:
                    78:a9:51:9b:3e:45:97:2d:88:82:f3:32:24:a4:72:
                    4f:9e:2d:59:85:99:e0:58:a4:5a:85:fc:f1:49:47:
                    cd:fc:07:11:83:48:37:f2:e7:4f:33:a1:1d:52:95:
                    c8:3d:b5:86:68:f2:ed:0b:fd:1e:64:49:1c:4e:55:
                    79:ab:5b:f8:d8:b1:ab:2d:4c:83:6a:c4:c1:c0:c5:
                    09:af:18:ca:0e:54:b3:39:64:a3:78:4d:56:ce:8d:
                    1a:1a:89
                Exponent: 65537 (0x10001)
        X509v3 extensions:
            X509v3 Basic Constraints: 
                CA:FALSE
            Netscape Comment: 
                OpenSSL Generated Certificate
            X509v3 Subject Key Identifier: 
                F9:A7:BD:1F:6B:FB:0B:F9:2B:79:CA:ED:72:C7:D3:E7:03:4F:B8:B2
            X509v3 Authority Key Identifier: 
                DirName:/C=US/ST=Utah/L=Salt Lake City/O=University Of Utah/CN=AvishekCAMSD
                serial:85:E6:A1:3C:27:D2:3A:21

    Signature Algorithm: md5WithRSAEncryption
         92:2d:13:40:7d:f3:05:d1:1f:6f:6b:67:ee:af:84:83:2e:f5:
         18:3a:ee:ea:c0:05:3b:39:4f:61:15:74:af:d8:9e:82:d4:5f:
         39:27:f4:9a:5a:9c:a3:3f:a0:b3:84:28:b4:cf:0e:28:c5:5b:
         50:fd:f6:0f:ef:5d:4d:b7:34:67:41:8a:f4:9c:01:05:84:75:
         dc:c9:b8:40:66:c5:a1:8b:40:bb:c4:c3:94:4d:92:8f:50:c2:
         5e:f9:97:dc:ab:9a:f1:78:be:6e:0f:7d:d6:6d:81:70:af:e1:
         90:db:b8:44:f6:c2:d2:6f:23:c7:27:02:a5:96:47:c2:1c:f3:
         68:98:e5:fb:8e:8e:1b:57:8c:45:64:89:d9:43:1e:0f:ff:36:
         54:f2:5f:d2:55:42:70:91:5a:20:60:22:99:10:76:d8:93:26:
         27:d2:63:d4:06:fc:df:f4:da:a5:67:97:c8:5b:a2:3f:b3:1f:
         4b:e6:0a:a8:a0:e9:da:83:98:24:e5:9a:34:6f:50:bc:3e:f2:
         d2:c6:5b:f2:92:6b:41:da:79:fe:d7:1c:81:0c:b6:6d:96:5e:
         a7:26:de:c1:6d:d1:32:57:97:8e:1d:02:0c:81:9d:df:e1:98:
         de:4d:b0:99:99:5c:bb:93:a0:55:d7:48:94:64:40:30:c3:7a:
         79:21:24:bd:ff:a0:4b:62:4b:32:b9:4d:40:f7:6e:83:ee:ab:
         56:c0:7a:f5:24:bf:6a:50:f5:97:77:ee:39:b2:76:d8:9e:2c:
         ad:3f:d3:10:4f:a3:f5:46:47:21:f6:c5:e9:da:1b:27:0c:2c:
         04:86:32:22:ca:61:d5:04:b5:bf:53:57:15:35:0d:e1:0e:dc:
         cd:a3:36:ee:5d:0a:a2:12:53:f6:a1:fe:38:7c:2c:20:4e:21:
         59:3e:17:f5:27:7c:8f:bc:84:20:96:74:c3:7d:af:d9:68:5f:
         56:15:1c:a9:4d:e2:6a:ce:32:c7:a3:6b:f5:fd:7b:e9:14:ea:
         61:6f:62:46:e8:d8:df:e0:92:4d:ba:6e:2c:9e:08:78:6f:d2:
         44:23:70:7a:2c:e7:9d:3f:79:e0:7f:f7:af:ef:0a:76:21:60:
         1e:67:71:04:d0:ea:74:ff:b7:a8:c6:80:54:85:02:fb:50:75:
         c3:ee:63:f6:12:ac:46:7c:53:e4:7d:bf:f8:61:bd:68:cd:bd:
         22:b4:b1:3f:9f:72:20:54:8e:6f:21:99:74:71:be:2c:84:c9:
         4e:29:b2:57:c6:23:f3:fd:51:80:45:b9:65:75:42:06:5d:34:
         64:d0:39:5a:6b:86:7b:1e:00:56:23:3c:52:ba:94:40:b2:6d:
         ec:f6:1a:fe:69:5e:15:6b
-----BEGIN CERTIFICATE-----
MIIGGzCCBAOgAwIBAgICEAAwDQYJKoZIhvcNAQEEBQAwaTELMAkGA1UEBhMCVVMx
DTALBgNVBAgMBFV0YWgxFzAVBgNVBAcMDlNhbHQgTGFrZSBDaXR5MRswGQYDVQQK
DBJVbml2ZXJzaXR5IE9mIFV0YWgxFTATBgNVBAMMDEF2aXNoZWtDQU1TRDAeFw0y
MzA0MDMwMDUyMTlaFw0yNDA0MDIwMDUyMTlaMFQxCzAJBgNVBAYTAlVTMQ0wCwYD
VQQIDARVdGFoMRswGQYDVQQKDBJVbml2ZXJzaXR5IE9mIFV0YWgxGTAXBgNVBAMM
EEF2aXNoZWtTZXJ2ZXJNU0QwggIiMA0GCSqGSIb3DQEBAQUAA4ICDwAwggIKAoIC
AQCtC4sKwdrhjsJk1BVWcPXqyH8JJ4Vv9GbKRsHjOiOesURibhRQs5f6/0CvWj/I
w0DfW94VSS7RHTy97p6FV2d0MF8EAWHhaqj/B7SOAFYIVRTZA2jiwFo0J/Y6eHTV
yqoHfUJ/1cYo7OTkO9fa97bP/WWZDLOS9QlMHRQxGD1DUdrFKlPRih1FJaQj425k
wnY2WGRaltnvbq2Ha1XXyXKKJSvCgnbpSahUH49xpyf4mH4yuC2VjcxvD6V78F9c
dWzGyKK+2PB9UtIfOrwmT34/CnLAfXimQchfgBbpzNP0wIMVDrT0KESYmKni8JSP
G1TC2TSN5vWRBn3JyW9PlAtzw0DKWIIiH8lu5Rr3Weg3dbk5hPh1cDaMhFe7khFp
oh1j6PuJJrqgWhd0T4yMwspivXOHCA9eY6VUYKp+HFsCEJne+KyvPL4xZJwiV1Bw
t6tMGepjZmf8lku1vXduqwkG1G42UUb5Wli8VnljBL3b1zJDgicnwiSXVDgD5bkh
XnrUfNU0Va26t9gSs/ZmdEKVXdfXzSCDZywBhoesX7bynEnNtHipUZs+RZctiILz
MiSkck+eLVmFmeBYpFqF/PFJR838BxGDSDfy508zoR1Slcg9tYZo8u0L/R5kSRxO
VXmrW/jYsastTINqxMHAxQmvGMoOVLM5ZKN4TVbOjRoaiQIDAQABo4HhMIHeMAkG
A1UdEwQCMAAwLAYJYIZIAYb4QgENBB8WHU9wZW5TU0wgR2VuZXJhdGVkIENlcnRp
ZmljYXRlMB0GA1UdDgQWBBT5p70fa/sL+St5yu1yx9PnA0+4sjCBgwYDVR0jBHww
eqFtpGswaTELMAkGA1UEBhMCVVMxDTALBgNVBAgMBFV0YWgxFzAVBgNVBAcMDlNh
bHQgTGFrZSBDaXR5MRswGQYDVQQKDBJVbml2ZXJzaXR5IE9mIFV0YWgxFTATBgNV
BAMMDEF2aXNoZWtDQU1TRIIJAIXmoTwn0johMA0GCSqGSIb3DQEBBAUAA4ICAQCS
LRNAffMF0R9va2fur4SDLvUYOu7qwAU7OU9hFXSv2J6C1F85J/SaWpyjP6CzhCi0
zw4oxVtQ/fYP711NtzRnQYr0nAEFhHXcybhAZsWhi0C7xMOUTZKPUMJe+Zfcq5rx
eL5uD33WbYFwr+GQ27hE9sLSbyPHJwKllkfCHPNomOX7jo4bV4xFZInZQx4P/zZU
8l/SVUJwkVogYCKZEHbYkyYn0mPUBvzf9NqlZ5fIW6I/sx9L5gqooOnag5gk5Zo0
b1C8PvLSxlvykmtB2nn+1xyBDLZtll6nJt7BbdEyV5eOHQIMgZ3f4ZjeTbCZmVy7
k6BV10iUZEAww3p5ISS9/6BLYksyuU1A926D7qtWwHr1JL9qUPWXd+45snbYniyt
P9MQT6P1Rkch9sXp2hsnDCwEhjIiymHVBLW/U1cVNQ3hDtzNozbuXQqiElP2of44
fCwgTiFZPhf1J3yPvIQglnTDfa/ZaF9WFRypTeJqzjLHo2v1/XvpFOphb2JG6Njf
4JJNum4sngh4b9JEI3B6LOedP3ngf/ev7wp2IWAeZ3EE0Op0/7eoxoBUhQL7UHXD
7mP2EqxGfFPkfb/4Yb1ozb0itLE/n3IgVI5vIZl0cb4shMlOKbJXxiPz/VGARbll
dUIGXTRk0Dlaa4Z7HgBWIzxSupRAsm3s9hr+aV4Vaw==
-----END CERTIFICATE-----
