Certificate:
    Data:
        Version: 3 (0x2)
        Serial Number: 4097 (0x1001)
    Signature Algorithm: md5WithRSAEncryption
        Issuer: C=US, ST=Utah, L=Salt Lake City, O=University Of Utah, CN=AvishekCAMSD
        Validity
            Not Before: Apr  3 00:52:33 2023 GMT
            Not After : Apr  2 00:52:33 2024 GMT
        Subject: C=US, ST=Utah, O=University Of Utah, CN=AvishekClientMSD
        Subject Public Key Info:
            Public Key Algorithm: rsaEncryption
                RSA Public-Key: (4096 bit)
                Modulus:
                    00:c7:84:89:a4:04:b5:6e:4d:a9:d8:1d:5e:ff:d5:
                    a2:a7:2d:84:81:3a:0d:31:a2:05:7c:bf:ef:7d:46:
                    f3:61:7b:8d:39:d2:d7:ff:00:3c:3b:a5:4e:4c:4f:
                    90:08:89:34:bd:5b:74:d1:dc:2b:9b:a0:3d:4f:1a:
                    94:ec:ac:8a:d4:b3:12:2a:a6:de:a8:7c:51:50:72:
                    05:bb:61:4b:b5:68:d1:32:f7:cb:a4:b7:a0:a0:d2:
                    e0:cc:f9:2e:0a:4c:ef:00:86:6f:a7:70:fb:d7:b9:
                    f5:d7:72:df:8b:4f:a1:0e:4c:a2:ba:02:97:e7:fd:
                    07:44:61:6d:6a:db:2e:77:61:1e:6b:7a:a7:04:98:
                    69:4c:53:09:38:ad:c5:03:ad:98:29:ec:d8:81:9a:
                    d9:23:00:9a:87:a4:dc:34:e1:df:49:8e:8a:2f:ac:
                    b5:5c:74:7e:84:28:61:f3:d9:24:1c:9d:03:2a:26:
                    19:0d:95:64:fc:1f:8d:c9:c9:7a:cf:fc:24:49:bd:
                    97:1a:07:c6:cc:c6:58:30:9d:dd:ef:84:90:ab:00:
                    5d:35:08:c6:e1:eb:2f:4e:d5:8b:ca:6c:57:08:71:
                    58:d1:08:37:fa:76:2f:87:75:d6:91:16:a5:27:8c:
                    8c:9b:19:9b:44:e7:e7:40:60:bd:2c:76:3a:ca:1b:
                    75:49:97:62:e1:6e:a6:23:88:8a:a4:01:e0:a6:0d:
                    ef:ff:4a:be:f8:8b:f7:b1:4e:eb:78:4e:7c:0b:34:
                    8f:b8:f7:38:88:f5:f8:11:ab:5f:22:73:cb:bf:31:
                    18:ef:25:ac:f6:ec:2f:10:82:83:03:13:2e:43:79:
                    89:3d:c0:63:e9:96:e9:02:f7:f0:31:0a:02:41:cd:
                    fd:c6:94:32:bf:22:8d:f5:5e:41:f4:c3:8c:84:fa:
                    53:9a:90:70:44:41:71:13:c9:75:2f:58:27:8f:cf:
                    58:fa:25:1f:97:34:a2:bc:f9:5a:62:5b:9b:53:d7:
                    c8:64:25:ea:25:8b:ca:a8:6a:2e:5c:4b:b2:c3:91:
                    a4:0e:c7:80:bf:ad:e4:79:c3:31:96:d9:c8:eb:b0:
                    53:84:54:c4:10:53:40:bb:14:d5:35:cf:ba:0f:53:
                    84:bf:e7:5a:47:42:c6:a1:08:69:79:b1:5d:54:76:
                    7f:f5:aa:4c:73:3c:04:60:d5:29:05:d7:85:4c:3f:
                    08:a9:b0:a3:9b:75:36:3c:f5:9d:c1:06:40:f5:50:
                    79:c1:35:3d:5a:95:e7:5f:02:ce:96:d5:a3:f3:32:
                    94:7b:68:ef:12:9d:8e:27:2c:84:42:a2:1f:15:9f:
                    30:27:a4:e1:03:fb:40:93:22:10:ff:c1:af:44:ab:
                    e0:4c:e3
                Exponent: 65537 (0x10001)
        X509v3 extensions:
            X509v3 Basic Constraints: 
                CA:FALSE
            Netscape Comment: 
                OpenSSL Generated Certificate
            X509v3 Subject Key Identifier: 
                9E:4D:E2:40:B2:B2:32:3E:E6:DF:B7:2B:5D:73:CA:48:81:30:14:27
            X509v3 Authority Key Identifier: 
                DirName:/C=US/ST=Utah/L=Salt Lake City/O=University Of Utah/CN=AvishekCAMSD
                serial:85:E6:A1:3C:27:D2:3A:21

    Signature Algorithm: md5WithRSAEncryption
         2b:93:79:e9:e6:f3:93:ef:44:7b:93:fa:ab:1c:ac:b3:73:c7:
         2c:a7:6c:3c:ee:60:53:7f:8c:27:e9:e9:fd:73:5a:32:58:d0:
         50:db:81:94:4c:17:7d:12:83:64:b5:29:fa:9a:70:e5:6a:cd:
         04:6f:66:3d:7a:3b:65:6e:ac:92:93:9c:14:16:cb:6b:c5:38:
         d7:be:58:3f:c3:14:83:9e:9e:b3:bf:26:72:de:be:ba:79:26:
         a5:0a:da:6d:7a:a4:17:b3:44:f1:56:6a:00:71:fa:1a:cc:78:
         fa:e6:f4:fb:00:09:37:83:d1:a4:1f:ac:c9:74:52:39:76:d4:
         89:eb:58:d0:5f:7b:92:02:48:df:41:7e:02:bc:b9:04:0f:02:
         ac:85:54:e7:0b:ce:2f:b4:b0:ad:99:f0:1f:8e:06:10:35:ab:
         11:b9:73:09:e0:33:ef:4f:8b:43:1a:74:6a:f5:6d:aa:4e:f7:
         c5:83:03:f6:3f:15:53:ae:f6:2b:84:2d:3f:73:f1:63:5a:c6:
         24:02:ab:1d:d9:82:fd:57:93:40:39:b9:c6:61:25:dc:74:27:
         8c:dc:98:83:36:52:4c:e4:80:3b:33:af:a4:22:0a:06:7b:a3:
         1e:56:00:9c:30:c3:c8:c8:ef:48:04:c5:2f:4c:98:f4:e2:4e:
         c4:ab:63:09:ed:36:29:52:84:38:f0:0b:de:35:97:6f:f6:df:
         f8:fa:37:67:45:6a:0f:9c:6d:8c:08:9e:64:b3:7c:8c:d2:3d:
         1f:84:c2:80:ed:ee:22:fe:df:44:55:28:9d:d9:27:ef:10:77:
         3e:e8:de:4e:ec:a6:d8:38:bd:6e:12:f7:fe:37:23:7a:15:0b:
         2b:0d:b5:27:c0:e8:e7:52:86:c4:b0:73:0c:39:e0:92:ff:f2:
         e3:d5:e6:d6:83:10:ba:d5:0a:4c:0a:b4:a6:59:8c:8e:41:b8:
         aa:69:68:28:bc:8c:80:4e:a8:a4:b2:cf:0a:ed:93:00:3b:85:
         c4:7b:49:cd:d2:c7:3e:c2:ff:db:60:29:10:ea:5e:1b:ba:fc:
         28:d9:d5:86:16:4a:36:ed:8d:a1:4e:4f:89:59:a0:4e:de:65:
         60:88:d4:43:9b:48:76:f9:ff:05:42:92:08:c2:b3:59:96:55:
         8a:34:e5:69:5b:3f:f7:94:48:56:2f:04:df:05:af:e5:62:e1:
         70:6a:a5:b5:a0:95:a2:a2:01:7e:3f:73:20:26:6a:ab:3d:94:
         fd:24:eb:43:ff:b0:37:70:b8:c9:aa:5c:c1:9e:7b:be:8c:d6:
         45:1e:29:9c:68:98:f5:ad:c7:ca:fd:e7:6d:4a:79:10:21:77:
         91:c4:54:ad:eb:9a:d4:a7
-----BEGIN CERTIFICATE-----
MIIGGzCCBAOgAwIBAgICEAEwDQYJKoZIhvcNAQEEBQAwaTELMAkGA1UEBhMCVVMx
DTALBgNVBAgMBFV0YWgxFzAVBgNVBAcMDlNhbHQgTGFrZSBDaXR5MRswGQYDVQQK
DBJVbml2ZXJzaXR5IE9mIFV0YWgxFTATBgNVBAMMDEF2aXNoZWtDQU1TRDAeFw0y
MzA0MDMwMDUyMzNaFw0yNDA0MDIwMDUyMzNaMFQxCzAJBgNVBAYTAlVTMQ0wCwYD
VQQIDARVdGFoMRswGQYDVQQKDBJVbml2ZXJzaXR5IE9mIFV0YWgxGTAXBgNVBAMM
EEF2aXNoZWtDbGllbnRNU0QwggIiMA0GCSqGSIb3DQEBAQUAA4ICDwAwggIKAoIC
AQDHhImkBLVuTanYHV7/1aKnLYSBOg0xogV8v+99RvNhe4050tf/ADw7pU5MT5AI
iTS9W3TR3CuboD1PGpTsrIrUsxIqpt6ofFFQcgW7YUu1aNEy98ukt6Cg0uDM+S4K
TO8Ahm+ncPvXufXXct+LT6EOTKK6Apfn/QdEYW1q2y53YR5reqcEmGlMUwk4rcUD
rZgp7NiBmtkjAJqHpNw04d9JjoovrLVcdH6EKGHz2SQcnQMqJhkNlWT8H43JyXrP
/CRJvZcaB8bMxlgwnd3vhJCrAF01CMbh6y9O1YvKbFcIcVjRCDf6di+HddaRFqUn
jIybGZtE5+dAYL0sdjrKG3VJl2LhbqYjiIqkAeCmDe//Sr74i/exTut4TnwLNI+4
9ziI9fgRq18ic8u/MRjvJaz27C8QgoMDEy5DeYk9wGPplukC9/AxCgJBzf3GlDK/
Io31XkH0w4yE+lOakHBEQXETyXUvWCePz1j6JR+XNKK8+VpiW5tT18hkJeoli8qo
ai5cS7LDkaQOx4C/reR5wzGW2cjrsFOEVMQQU0C7FNU1z7oPU4S/51pHQsahCGl5
sV1Udn/1qkxzPARg1SkF14VMPwipsKObdTY89Z3BBkD1UHnBNT1aledfAs6W1aPz
MpR7aO8SnY4nLIRCoh8VnzAnpOED+0CTIhD/wa9Eq+BM4wIDAQABo4HhMIHeMAkG
A1UdEwQCMAAwLAYJYIZIAYb4QgENBB8WHU9wZW5TU0wgR2VuZXJhdGVkIENlcnRp
ZmljYXRlMB0GA1UdDgQWBBSeTeJAsrIyPubftytdc8pIgTAUJzCBgwYDVR0jBHww
eqFtpGswaTELMAkGA1UEBhMCVVMxDTALBgNVBAgMBFV0YWgxFzAVBgNVBAcMDlNh
bHQgTGFrZSBDaXR5MRswGQYDVQQKDBJVbml2ZXJzaXR5IE9mIFV0YWgxFTATBgNV
BAMMDEF2aXNoZWtDQU1TRIIJAIXmoTwn0johMA0GCSqGSIb3DQEBBAUAA4ICAQAr
k3np5vOT70R7k/qrHKyzc8csp2w87mBTf4wn6en9c1oyWNBQ24GUTBd9EoNktSn6
mnDlas0Eb2Y9ejtlbqySk5wUFstrxTjXvlg/wxSDnp6zvyZy3r66eSalCtpteqQX
s0TxVmoAcfoazHj65vT7AAk3g9GkH6zJdFI5dtSJ61jQX3uSAkjfQX4CvLkEDwKs
hVTnC84vtLCtmfAfjgYQNasRuXMJ4DPvT4tDGnRq9W2qTvfFgwP2PxVTrvYrhC0/
c/FjWsYkAqsd2YL9V5NAObnGYSXcdCeM3JiDNlJM5IA7M6+kIgoGe6MeVgCcMMPI
yO9IBMUvTJj04k7Eq2MJ7TYpUoQ48AveNZdv9t/4+jdnRWoPnG2MCJ5ks3yM0j0f
hMKA7e4i/t9EVSid2SfvEHc+6N5O7KbYOL1uEvf+NyN6FQsrDbUnwOjnUobEsHMM
OeCS//Lj1ebWgxC61QpMCrSmWYyOQbiqaWgovIyATqikss8K7ZMAO4XEe0nN0sc+
wv/bYCkQ6l4buvwo2dWGFko27Y2hTk+JWaBO3mVgiNRDm0h2+f8FQpIIwrNZllWK
NOVpWz/3lEhWLwTfBa/lYuFwaqW1oJWiogF+P3MgJmqrPZT9JOtD/7A3cLjJqlzB
nnu+jNZFHimcaJj1rcfK/edtSnkQIXeRxFSt65rUpw==
-----END CERTIFICATE-----
